target datalayout = "e-m:e-p270:32:32-p271:32:32-p272:64:64-i64:64-i128:128-f80:128-n8:16:32:64-S128"
target triple = "x86_64-pc-linux-gnu"

%struct.mbedtls_ecp_group = type { i32, %struct.mbedtls_mpi, %struct.mbedtls_mpi, %struct.mbedtls_mpi, %struct.mbedtls_ecp_point, %struct.mbedtls_mpi, i64, i64, i32, ptr, ptr, ptr, ptr, ptr, i64 }
%struct.mbedtls_ecp_point = type { %struct.mbedtls_mpi, %struct.mbedtls_mpi, %struct.mbedtls_mpi }
%struct.mbedtls_mpi = type { ptr, i16, i16 }
%struct.mbedtls_ecdh_context = type { i8, i32, i32, %union.anon }
%union.anon = type { %struct.mbedtls_ecdh_context_mbed }
%struct.mbedtls_ecdh_context_mbed = type { %struct.mbedtls_ecp_group, %struct.mbedtls_mpi, %struct.mbedtls_ecp_point, %struct.mbedtls_ecp_point, %struct.mbedtls_mpi }

; Function Attrs: nounwind uwtable
define internal i32 @ecdh_setup_internal(ptr noundef %0, i32 noundef %1) #0 {
  %3 = alloca i32, align 4
  %4 = alloca ptr, align 8
  %5 = alloca i32, align 4
  %6 = alloca i32, align 4
  %7 = alloca i32, align 4
  store ptr %0, ptr %4, align 8, !tbaa !21
  store i32 %1, ptr %5, align 4, !tbaa !3
  call void @llvm.lifetime.start.p0(i64 4, ptr %6) #4
  store i32 -110, ptr %6, align 4, !tbaa !3
  %8 = load ptr, ptr %4, align 8, !tbaa !21
  %9 = getelementptr inbounds nuw %struct.mbedtls_ecdh_context_mbed, ptr %8, i32 0, i32 0
  %10 = load i32, ptr %5, align 4, !tbaa !3
  %11 = call i32 @mbedtls_ecp_group_load(ptr noundef %9, i32 noundef %10)
  store i32 %11, ptr %6, align 4, !tbaa !3
  %12 = load i32, ptr %6, align 4, !tbaa !3
  %13 = icmp ne i32 %12, 0
  br i1 %13, label %14, label %15

14:                                               ; preds = %2
  store i32 -20096, ptr %3, align 4
  store i32 1, ptr %7, align 4
  br label %16

15:                                               ; preds = %2
  store i32 0, ptr %3, align 4
  store i32 1, ptr %7, align 4
  br label %16

16:                                               ; preds = %15, %14
  call void @llvm.lifetime.end.p0(i64 4, ptr %6) #4
  %17 = load i32, ptr %3, align 4
  ret i32 %17
}

; Function Attrs: nounwind uwtable
define internal void @ecdh_init_internal(ptr noundef %0) #0 {
  %2 = alloca ptr, align 8
  store ptr %0, ptr %2, align 8, !tbaa !21
  %3 = load ptr, ptr %2, align 8, !tbaa !21
  %4 = getelementptr inbounds nuw %struct.mbedtls_ecdh_context_mbed, ptr %3, i32 0, i32 0
  call void @mbedtls_ecp_group_init(ptr noundef %4)
  %5 = load ptr, ptr %2, align 8, !tbaa !21
  %6 = getelementptr inbounds nuw %struct.mbedtls_ecdh_context_mbed, ptr %5, i32 0, i32 1
  call void @mbedtls_mpi_init(ptr noundef %6)
  %7 = load ptr, ptr %2, align 8, !tbaa !21
  %8 = getelementptr inbounds nuw %struct.mbedtls_ecdh_context_mbed, ptr %7, i32 0, i32 2
  call void @mbedtls_ecp_point_init(ptr noundef %8)
  %9 = load ptr, ptr %2, align 8, !tbaa !21
  %10 = getelementptr inbounds nuw %struct.mbedtls_ecdh_context_mbed, ptr %9, i32 0, i32 3
  call void @mbedtls_ecp_point_init(ptr noundef %10)
  %11 = load ptr, ptr %2, align 8, !tbaa !21
  %12 = getelementptr inbounds nuw %struct.mbedtls_ecdh_context_mbed, ptr %11, i32 0, i32 4
  call void @mbedtls_mpi_init(ptr noundef %12)
  ret void
}

; Function Attrs: nounwind uwtable
define hidden i32 @mbedtls_ecdh_setup(ptr noundef %0, i32 noundef %1) #0 {
  %3 = alloca ptr, align 8
  %4 = alloca i32, align 4
  store ptr %0, ptr %3, align 8, !tbaa !15
  store i32 %1, ptr %4, align 4, !tbaa !3
  %5 = load i32, ptr %4, align 4, !tbaa !3
  switch i32 %5, label %6 [
  ]

6:                                                ; preds = %2
  %7 = load ptr, ptr %3, align 8, !tbaa !15
  %8 = getelementptr inbounds nuw %struct.mbedtls_ecdh_context, ptr %7, i32 0, i32 0
  store i8 0, ptr %8, align 8, !tbaa !20
  %9 = load ptr, ptr %3, align 8, !tbaa !15
  %10 = getelementptr inbounds nuw %struct.mbedtls_ecdh_context, ptr %9, i32 0, i32 2
  store i32 1, ptr %10, align 8, !tbaa !19
  %11 = load i32, ptr %4, align 4, !tbaa !3
  %12 = load ptr, ptr %3, align 8, !tbaa !15
  %13 = getelementptr inbounds nuw %struct.mbedtls_ecdh_context, ptr %12, i32 0, i32 1
  store i32 %11, ptr %13, align 4, !tbaa !17
  %14 = load ptr, ptr %3, align 8, !tbaa !15
  %15 = getelementptr inbounds nuw %struct.mbedtls_ecdh_context, ptr %14, i32 0, i32 3
  call void @ecdh_init_internal(ptr noundef %15)
  %16 = load ptr, ptr %3, align 8, !tbaa !15
  %17 = getelementptr inbounds nuw %struct.mbedtls_ecdh_context, ptr %16, i32 0, i32 3
  %18 = load i32, ptr %4, align 4, !tbaa !3
  %19 = call i32 @ecdh_setup_internal(ptr noundef %17, i32 noundef %18)
  ret i32 %19
}