; Function Attrs: nounwind uwtable
define hidden range(i32 -20096, 1) i32 @mbedtls_ecdh_setup(ptr noundef initializes((0, 1), (4, 12)) %0, i32 noundef %1) local_unnamed_addr #1 {
  store i8 0, ptr %0, align 8, !tbaa !8
  %3 = getelementptr inbounds nuw i8, ptr %0, i64 8
  store i32 1, ptr %3, align 8, !tbaa !9
  %4 = getelementptr inbounds nuw i8, ptr %0, i64 4
  store i32 %1, ptr %4, align 4, !tbaa !3
  %5 = getelementptr inbounds nuw i8, ptr %0, i64 16
  tail call void @mbedtls_ecp_group_init(ptr noundef nonnull %5) #7
  %6 = getelementptr inbounds nuw i8, ptr %0, i64 208
  tail call void @mbedtls_mpi_init(ptr noundef nonnull %6) #7
  %7 = getelementptr inbounds nuw i8, ptr %0, i64 224
  tail call void @mbedtls_ecp_point_init(ptr noundef nonnull %7) #7
  %8 = getelementptr inbounds nuw i8, ptr %0, i64 272
  tail call void @mbedtls_ecp_point_init(ptr noundef nonnull %8) #7
  %9 = getelementptr inbounds nuw i8, ptr %0, i64 320
  tail call void @mbedtls_mpi_init(ptr noundef nonnull %9) #7
  %10 = tail call i32 @mbedtls_ecp_group_load(ptr noundef nonnull %5, i32 noundef %1) #7
  %.not.i = icmp eq i32 %10, 0
  %..i = select i1 %.not.i, i32 0, i32 -20096
  ret i32 %..i
}